; Function Attrs: nounwind uwtable
define internal void @_ReadExtraToc(ptr noundef %0, ptr noundef captures(none) %1) #0 {
  %3 = getelementptr inbounds nuw i8, ptr %1, i64 152
  %4 = load ptr, ptr %3, align 8
  %5 = icmp eq ptr %4, null
  br i1 %5, label %6, label %8

6:                                                ; preds = %2
  %7 = tail call ptr @pg_malloc0(i64 noundef 16) #17
  store ptr %7, ptr %3, align 8
  br label %8

8:                                                ; preds = %6, %2
  %.0 = phi ptr [ %7, %6 ], [ %4, %2 ]
  %9 = tail call ptr @ReadStr(ptr noundef %0) #17
  %10 = getelementptr inbounds nuw i8, ptr %.0, i64 8
  store ptr %9, ptr %10, align 8
  %char0 = load i8, ptr %9, align 1
  %11 = icmp eq i8 %char0, 0
  br i1 %11, label %12, label %13

12:                                               ; preds = %8
  tail call void @free(ptr noundef nonnull %9) #17
  store ptr null, ptr %10, align 8
  br label %13

13:                                               ; preds = %12, %8
  store ptr null, ptr %.0, align 8
  ret void
}